; Function Attrs: mustprogress nofree norecurse nosync nounwind willreturn memory(readwrite, inaccessiblemem: none) uwtable
define dso_local void @_ZN4node4quic7Session20SendPendingDataScopeC2ERKNS_17BaseObjectPtrImplIS1_Lb0EEE(ptr nocapture noundef nonnull writeonly align 8 dereferenceable(8) %this, ptr nocapture noundef nonnull readonly align 8 dereferenceable(8) %session) unnamed_addr #4 align 2 {
entry:
  %0 = load ptr, ptr %session, align 8
  store ptr %0, ptr %this, align 8
  %send_scope_depth_.i = getelementptr inbounds i8, ptr %0, i64 2488
  %1 = load i64, ptr %send_scope_depth_.i, align 8
  %inc.i = add i64 %1, 1
  store i64 %inc.i, ptr %send_scope_depth_.i, align 8
  ret void
}